000000000041f670 t _GLOBAL__sub_I_dettrace.cpp
000000000040edb0 t _GLOBAL__sub_I_dettraceSystemCall.cpp
0000000000427a90 t _GLOBAL__sub_I_devrand.cpp
0000000000417310 t _GLOBAL__sub_I_execution.cpp
000000000041f7f0 t _GLOBAL__sub_I_globalState.cpp
0000000000427a30 t _GLOBAL__sub_I_logger.cpp
000000000040f110 t _GLOBAL__sub_I_main.cpp
0000000000417370 t _GLOBAL__sub_I_ptracer.cpp
000000000041f730 t _GLOBAL__sub_I_rnr_loader.cpp
00000000004279d0 t _GLOBAL__sub_I_scheduler.cpp
000000000041f6d0 t _GLOBAL__sub_I_seccomp.cpp
00000000004173d0 t _GLOBAL__sub_I_state.cpp
0000000000417490 t _GLOBAL__sub_I_tempfile.cpp
0000000000428550 t _GLOBAL__sub_I_util.cpp
000000000041f790 t _GLOBAL__sub_I_utilSystemCalls.cpp
0000000000417430 t _GLOBAL__sub_I_vdso.cpp
00000000004e7dd0 T _Z10getPipeFdsR11globalStateR5stateR7ptracer
00000000004f26e0 T _Z11doWithCheckiPKc
00000000004e77e0 T _Z11injectPauseR11globalStateR5stateR7ptracer
00000000004bf090 T _Z11kernelCheckiii
00000000004e9630 T _Z12readInodeForR6loggerii
00000000004f2540 T _Z12runtimeErrorNSt7__cxx1112basic_stringIcSt11char_traitsIcESaIcEEE
00000000004e6c30 T _Z13zeroOutStatfsR6statfs
00000000004e7d80 T _Z14failSystemCallR11globalStateR5stateR7ptraceri
00000000004ea6f0 T _Z14handlePreOpensR11globalStateR5stateR7ptraceri9traceePtrIcEi
00000000004f2600 T _Z14myErrorMessageNSt7__cxx1112basic_stringIcSt11char_traitsIcESaIcEEE
00000000004e2640 T _Z14sigalrmHandleri
00000000004bff40 T _Z15eraseChildEntryRSt8multimapIiiSt4lessIiESaISt4pairIKiiEEEi
00000000004eb320 T _Z15handlePostOpensR11globalStateR5stateR7ptraceri
00000000004e7580 T _Z15printInfoStringmR6loggeriR7ptracerNSt7__cxx1112basic_stringIcSt11char_traitsIcESaIcEEE
00000000004e79a0 T _Z16cancelSystemCallR11globalStateR5stateR7ptracer
00000000004e6cd0 T _Z16handleStatFamilyR11globalStateR5stateR7ptracerNSt7__cxx1112basic_stringIcSt11char_traitsIcESaIcEEE
00000000004e6950 T _Z16preemptIfBlockedR11globalStateR5stateR7ptracerR9schedulerl
00000000004e6bc0 T _Z16replaySystemCallR11globalStateR7ptracerm
00000000004e8dc0 T _Z17inode_from_traceeRKNSt7__cxx1112basic_stringIcSt11char_traitsIcESaIcEEEiR6loggeri
00000000004dee50 T _Z18proc_get_vdso_vvariP12ProcMapEntryS0_
00000000004e80b0 T _Z18tracee_file_existsRKNSt7__cxx1112basic_stringIcSt11char_traitsIcESaIcEEEiR6loggeri
00000000004bfff0 T _Z19deleteMultimapEntryRSt18unordered_multimapIiiSt4hashIiESt8equal_toIiESaISt4pairIKiiEEEii
00000000004e8310 T _Z19resolve_tracee_pathRKNSt7__cxx1112basic_stringIcSt11char_traitsIcESaIcEEEiR6loggeri
00000000004e9b20 T _Z19sendTraceeSignalNowiR11globalStateR5stateR7ptracerR9scheduler
0000000000434310 T _Z20getPendingSignalInfoiP17PendingSignalInfo
00000000004de8c0 T _Z20proc_get_map_entriesiP12ProcMapEntryi
0000000000456ee0 T _Z21parseProgramArgumentsiPPc
00000000004df330 T _Z21proc_get_vdso_symbolsP12ProcMapEntryP10VDSOSymboli
00000000004ee610 T _Z21removeElementFromHeapRSt14priority_queueIiSt6vectorIiSaIiEESt4lessIiEEi
00000000004e6a60 T _Z22replaySyscallIfBlockedR11globalStateR5stateR7ptracerR9schedulerl
00000000004e78d0 T _Z25replaceSystemCallWithNoopR11globalStateR5stateR7ptracer
00000000004f2820 T _Z27throw_runtime_error_if_failbiPKciS0_S0_
00000000004f2630 T _Z8parseNumPKc
00000000004f2710 T _Z8sysErrorPKc
00000000004c8b40 T _Z9trapCPUIDR11globalStateR5stateR7ptracer
00000000004e3e10 t _ZL10fileExistsPKc
000000000045fbe0 t _ZL10getExePathB5cxx11i
00000000004e3450 t _ZL10update_mapPcS_
0000000000460220 t _ZL11make_mountsRKSt6vectorI10MountPointSaIS0_EE
00000000004deb30 t _ZL11parse_entryPcP12ProcMapEntry
00000000004e0c20 t _ZL12fd_file_pathB5cxx11i
00000000004dffa0 t _ZL14make_temp_fileRKNSt7__cxx1112basic_stringIcSt11char_traitsIcESaIcEEE
00000000004e2720 t _ZL15_dettrace_childPK9CloneArgs
000000000042ac00 t _ZL15epoll_log_eventR11globalStateR7ptracer
000000000042cfe0 t _ZL15interceptStatfs9traceePtrI6statfsER7ptracer
00000000004321f0 t _ZL17fd_is_nonblockingR5statei
000000000043b530 t _ZL17get_proc_fd_flagsii
00000000004c8790 t _ZL17traceePreinitMmapiR7ptracer
0000000000460550 t _ZL18__gthread_active_pv
00000000004c9050 t _ZL18__gthread_active_pv
00000000004d5850 t _ZL18__gthread_active_pv
00000000004e4aa0 t _ZL18__gthread_active_pv
00000000004e4b20 t _ZL20createFileIfNotExistRKNSt7__cxx1112basic_stringIcSt11char_traitsIcESaIcEEE
00000000004e3550 t _ZL20proc_setgroups_writeiPKc
00000000004c8760 t _ZL7alignUpmi
000000000042a7e0 t _ZL8epoll_opi
00000000004e36d0 t _ZL8mountDirPKcS0_
000000000045ecc0 t _ZL8run_mainR11programArgs
00000000004e2150 t _ZL9_dettracePK12TraceOptions
000000000045fe00 t _ZL9make_argvRSt6vectorINSt7__cxx1112basic_stringIcSt11char_traitsIcESaIcEEESaIS5_EE
000000000045ffe0 t _ZL9make_envpRSt13unordered_mapINSt7__cxx1112basic_stringIcSt11char_traitsIcESaIcEEES5_St4hashIS5_ESt8equal_toIS5_ESaISt4pairIKS5_S5_EEE
00000000004e3e50 t _ZL9runTraceeRK12TraceOptionsPKcS3_
00000000004f2510 T _ZN10RandThread8shutdownEv
00000000004f22f0 T _ZN10RandThread9runThreadEPv
00000000004f2170 T _ZN10RandThreadC1ERKNSt7__cxx1112basic_stringIcSt11char_traitsIcESaIcEEEt
00000000004f2170 T _ZN10RandThreadC2ERKNSt7__cxx1112basic_stringIcSt11char_traitsIcESaIcEEEt
00000000004ec1c0 T _ZN11globalStateC1ER6logger11ValueMapperImmESt13unordered_mapImNSt6chrono10time_pointI13logical_clockNS5_8durationIlSt5ratioILl1ELl1000000EEEEEESt4hashImESt8equal_toImESaISt4pairIKmSC_EEEbjSC_b
00000000004ec1c0 T _ZN11globalStateC2ER6logger11ValueMapperImmESt13unordered_mapImNSt6chrono10time_pointI13logical_clockNS5_8durationIlSt5ratioILl1ELl1000000EEEEEESt4hashImESt8equal_toImESaISt4pairIKmSC_EEEbjSC_b
00000000004dfc90 t _ZN12_GLOBAL__N_17_gettidEv
00000000004e02a0 T _ZN13NamedTempFileC1ER7TempDir
00000000004e0470 T _ZN13NamedTempFileC1ERKNSt7__cxx1112basic_stringIcSt11char_traitsIcESaIcEEE
00000000004dfd90 T _ZN13NamedTempFileC1Ev
00000000004e02a0 T _ZN13NamedTempFileC2ER7TempDir
00000000004e0470 T _ZN13NamedTempFileC2ERKNSt7__cxx1112basic_stringIcSt11char_traitsIcESaIcEEE
00000000004dfd90 T _ZN13NamedTempFileC2Ev
0000000000429a60 T _ZN13dupSystemCall12handleDetPreER11globalStateR5stateR7ptracerR9scheduler
0000000000429a80 T _ZN13dupSystemCall13handleDetPostER11globalStateR5stateR7ptracerR9scheduler
00000000004e1620 T _ZN13logical_clock10to_timevalERKNSt6chrono10time_pointIS_NS0_8durationIlSt5ratioILl1ELl1000000EEEEEE
00000000004e1400 T _ZN13logical_clock11from_time_tEl
00000000004e1470 T _ZN13logical_clock11to_timespecERKNSt6chrono10time_pointIS_NS0_8durationIlSt5ratioILl1ELl1000000EEEEEE
00000000004e1730 T _ZN13logical_clock12from_timevalERK7timeval
00000000004e1580 T _ZN13logical_clock13from_timespecERK8timespec
00000000004e1320 T _ZN13logical_clock3nowEv
00000000004e1390 T _ZN13logical_clock9to_time_tERKNSt6chrono10time_pointIS_NS0_8durationIlSt5ratioILl1ELl1000000EEEEEE
0000000000429c20 T _ZN14dup2SystemCall12handleDetPreER11globalStateR5stateR7ptracerR9scheduler
0000000000429c40 T _ZN14dup2SystemCall13handleDetPostER11globalStateR5stateR7ptracerR9scheduler
0000000000430770 T _ZN14linkSystemCall12handleDetPreER11globalStateR5stateR7ptracerR9scheduler
0000000000430940 T _ZN14linkSystemCall13handleDetPostER11globalStateR5stateR7ptracerR9scheduler
000000000042f650 T _ZN14mmapSystemCall12handleDetPreER11globalStateR5stateR7ptracerR9scheduler
000000000042f670 T _ZN14mmapSystemCall13handleDetPostER11globalStateR5stateR7ptracerR9scheduler
0000000000430c50 T _ZN14openSystemCall12handleDetPreER11globalStateR5stateR7ptracerR9scheduler
0000000000430d00 T _ZN14openSystemCall13handleDetPostER11globalStateR5stateR7ptracerR9scheduler
0000000000431110 T _ZN14pipeSystemCall12handleDetPreER11globalStateR5stateR7ptracerR9scheduler
0000000000431210 T _ZN14pipeSystemCall13handleDetPostER11globalStateR5stateR7ptracerR9scheduler
0000000000431be0 T _ZN14pollSystemCall12handleDetPreER11globalStateR5stateR7ptracerR9scheduler
0000000000431ca0 T _ZN14pollSystemCall13handleDetPostER11globalStateR5stateR7ptracerR9scheduler
0000000000431f40 T _ZN14readSystemCall12handleDetPreER11globalStateR5stateR7ptracerR9scheduler
0000000000432280 T _ZN14readSystemCall13handleDetPostER11globalStateR5stateR7ptracerR9scheduler
0000000000435750 T _ZN14statSystemCall12handleDetPreER11globalStateR5stateR7ptracerR9scheduler
0000000000435830 T _ZN14statSystemCall13handleDetPostER11globalStateR5stateR7ptracerR9scheduler
0000000000436c10 T _ZN14timeSystemCall12handleDetPreER11globalStateR5stateR7ptracerR9scheduler
0000000000436c30 T _ZN14timeSystemCall13handleDetPostER11globalStateR5stateR7ptracerR9scheduler
0000000000428d90 T _ZN15alarmSystemCall12handleDetPreER11globalStateR5stateR7ptracerR9scheduler
0000000000428e90 T _ZN15alarmSystemCall13handleDetPostER11globalStateR5stateR7ptracerR9scheduler
0000000000428eb0 T _ZN15chdirSystemCall12handleDetPreER11globalStateR5stateR7ptracerR9scheduler
0000000000428f90 T _ZN15chdirSystemCall13handleDetPostER11globalStateR5stateR7ptracerR9scheduler
0000000000428fb0 T _ZN15chmodSystemCall12handleDetPreER11globalStateR5stateR7ptracerR9scheduler
0000000000429090 T _ZN15chmodSystemCall13handleDetPostER11globalStateR5stateR7ptracerR9scheduler
000000000042bee0 T _ZN15chownSystemCall12handleDetPreER11globalStateR5stateR7ptracerR9scheduler
000000000042bf50 T _ZN15chownSystemCall13handleDetPostER11globalStateR5stateR7ptracerR9scheduler
0000000000429190 T _ZN15closeSystemCall12handleDetPreER11globalStateR5stateR7ptracerR9scheduler
00000000004291b0 T _ZN15closeSystemCall13handleDetPostER11globalStateR5stateR7ptracerR9scheduler
00000000004298c0 T _ZN15creatSystemCall12handleDetPreER11globalStateR5stateR7ptracerR9scheduler
00000000004299a0 T _ZN15creatSystemCall13handleDetPostER11globalStateR5stateR7ptracerR9scheduler
000000000042c1e0 T _ZN15fcntlSystemCall12handleDetPreER11globalStateR5stateR7ptracerR9scheduler
000000000042c230 T _ZN15fcntlSystemCall13handleDetPostER11globalStateR5stateR7ptracerR9scheduler
000000000042cce0 T _ZN15fstatSystemCall12handleDetPreER11globalStateR5stateR7ptracerR9scheduler
000000000042cdc0 T _ZN15fstatSystemCall13handleDetPostER11globalStateR5stateR7ptracerR9scheduler
000000000042d150 T _ZN15futexSystemCall12handleDetPreER11globalStateR5stateR7ptracerR9scheduler
000000000042de80 T _ZN15futexSystemCall13handleDetPostER11globalStateR5stateR7ptracerR9scheduler
000000000042ea30 T _ZN15ioctlSystemCall12handleDetPreER11globalStateR5stateR7ptracerR9scheduler
000000000042ec10 T _ZN15ioctlSystemCall13handleDetPostER11globalStateR5stateR7ptracerR9scheduler
00000000004305c0 T _ZN15lstatSystemCall12handleDetPreER11globalStateR5stateR7ptracerR9scheduler
00000000004306a0 T _ZN15lstatSystemCall13handleDetPostER11globalStateR5stateR7ptracerR9scheduler
000000000042fa90 T _ZN15mkdirSystemCall12handleDetPreER11globalStateR5stateR7ptracerR9scheduler
000000000042fb70 T _ZN15mkdirSystemCall13handleDetPostER11globalStateR5stateR7ptracerR9scheduler
00000000004362d0 T _ZN15mknodSystemCall12handleDetPreER11globalStateR5stateR7ptracerR9scheduler
00000000004363b0 T _ZN15mknodSystemCall13handleDetPostER11globalStateR5stateR7ptracerR9scheduler
0000000000430e80 T _ZN15pauseSystemCall12handleDetPreER11globalStateR5stateR7ptracerR9scheduler
0000000000430f40 T _ZN15pauseSystemCall13handleDetPostER11globalStateR5stateR7ptracerR9scheduler
00000000004312b0 T _ZN15pipe2SystemCall12handleDetPreER11globalStateR5stateR7ptracerR9scheduler
00000000004313b0 T _ZN15pipe2SystemCall13handleDetPostER11globalStateR5stateR7ptracerR9scheduler
00000000004329d0 T _ZN15readvSystemCall12handleDetPreER11globalStateR5stateR7ptracerR9scheduler
00000000004329f0 T _ZN15readvSystemCall13handleDetPostER11globalStateR5stateR7ptracerR9scheduler
00000000004335c0 T _ZN15rmdirSystemCall12handleDetPreER11globalStateR5stateR7ptracerR9scheduler
00000000004336a0 T _ZN15rmdirSystemCall13handleDetPostER11globalStateR5stateR7ptracerR9scheduler
000000000042c100 T _ZN15statxSystemCall12handleDetPreER11globalStateR5stateR7ptracerR9scheduler
000000000042c170 T _ZN15statxSystemCall13handleDetPostER11globalStateR5stateR7ptracerR9scheduler
0000000000438e80 T _ZN15timesSystemCall12handleDetPreER11globalStateR5stateR7ptracerR9scheduler
0000000000438ea0 T _ZN15timesSystemCall13handleDetPostER11globalStateR5stateR7ptracerR9scheduler
0000000000438fe0 T _ZN15unameSystemCall12handleDetPreER11globalStateR5stateR7ptracerR9scheduler
0000000000439000 T _ZN15unameSystemCall13handleDetPostER11globalStateR5stateR7ptracerR9scheduler
0000000000439400 T _ZN15utimeSystemCall12handleDetPreER11globalStateR5stateR7ptracerR9scheduler
0000000000439510 T _ZN15utimeSystemCall13handleDetPostER11globalStateR5stateR7ptracerR9scheduler
000000000043a4c0 T _ZN15wait4SystemCall12handleDetPreER11globalStateR5stateR7ptracerR9scheduler
000000000043a6b0 T _ZN15wait4SystemCall13handleDetPostER11globalStateR5stateR7ptracerR9scheduler
0000000000439a90 T _ZN15writeSystemCall12handleDetPreER11globalStateR5stateR7ptracerR9scheduler
0000000000439c50 T _ZN15writeSystemCall13handleDetPostER11globalStateR5stateR7ptracerR9scheduler
000000000043b0e0 T _ZN16acceptSystemCall12handleDetPreER11globalStateR5stateR7ptracerR9scheduler
000000000043b1d0 T _ZN16acceptSystemCall13handleDetPostER11globalStateR5stateR7ptracerR9scheduler
0000000000428660 T _ZN16accessSystemCall12handleDetPreER11globalStateR5stateR7ptracerR9scheduler
0000000000428740 T _ZN16accessSystemCall13handleDetPostER11globalStateR5stateR7ptracerR9scheduler
000000000042b100 T _ZN16execveSystemCall12handleDetPreER11globalStateR5stateR7ptracerR9scheduler
000000000042bdd0 T _ZN16fchownSystemCall12handleDetPreER11globalStateR5stateR7ptracerR9scheduler
000000000042be40 T _ZN16fchownSystemCall13handleDetPostER11globalStateR5stateR7ptracerR9scheduler
000000000042e0d0 T _ZN16getcwdSystemCall12handleDetPreER11globalStateR5stateR7ptracerR9scheduler
000000000042e0f0 T _ZN16getcwdSystemCall13handleDetPostER11globalStateR5stateR7ptracerR9scheduler
000000000042e790 T _ZN16getsidSystemCall12handleDetPreER11globalStateR5stateR7ptracerR9scheduler
000000000042e7b0 T _ZN16getsidSystemCall13handleDetPostER11globalStateR5stateR7ptracerR9scheduler
000000000042bff0 T _ZN16lchownSystemCall12handleDetPreER11globalStateR5stateR7ptracerR9scheduler
000000000042c060 T _ZN16lchownSystemCall13handleDetPostER11globalStateR5stateR7ptracerR9scheduler
00000000004309e0 T _ZN16linkatSystemCall12handleDetPreER11globalStateR5stateR7ptracerR9scheduler
0000000000430bb0 T _ZN16linkatSystemCall13handleDetPostER11globalStateR5stateR7ptracerR9scheduler
000000000043af90 T _ZN16listenSystemCall12handleDetPreER11globalStateR5stateR7ptracerR9scheduler
000000000043afb0 T _ZN16listenSystemCall13handleDetPostER11globalStateR5stateR7ptracerR9scheduler
0000000000430d60 T _ZN16openatSystemCall12handleDetPreER11globalStateR5stateR7ptracerR9scheduler
0000000000430e20 T _ZN16openatSystemCall13handleDetPostER11globalStateR5stateR7ptracerR9scheduler
0000000000432ff0 T _ZN16renameSystemCall12handleDetPreER11globalStateR5stateR7ptracerR9scheduler
00000000004331c0 T _ZN16renameSystemCall13handleDetPostER11globalStateR5stateR7ptracerR9scheduler
00000000004350a0 T _ZN16selectSystemCall12handleDetPreER11globalStateR5stateR7ptracerR9scheduler
00000000004353c0 T _ZN16selectSystemCall13handleDetPostER11globalStateR5stateR7ptracerR9scheduler
0000000000434c70 T _ZN16sendtoSystemCall12handleDetPreER11globalStateR5stateR7ptracerR9scheduler
0000000000434c90 T _ZN16sendtoSystemCall13handleDetPostER11globalStateR5stateR7ptracerR9scheduler
000000000043aca0 T _ZN16socketSystemCall12handleDetPreER11globalStateR5stateR7ptracerR9scheduler
000000000043add0 T _ZN16socketSystemCall13handleDetPostER11globalStateR5stateR7ptracerR9scheduler
0000000000435900 T _ZN16statfsSystemCall12handleDetPreER11globalStateR5stateR7ptracerR9scheduler
0000000000435920 T _ZN16statfsSystemCall13handleDetPostER11globalStateR5stateR7ptracerR9scheduler
0000000000436790 T _ZN16tgkillSystemCall12handleDetPreER11globalStateR5stateR7ptracerR9scheduler
0000000000436bf0 T _ZN16tgkillSystemCall13handleDetPostER11globalStateR5stateR7ptracerR9scheduler
0000000000439200 T _ZN16unlinkSystemCall12handleDetPreER11globalStateR5stateR7ptracerR9scheduler
00000000004392e0 T _ZN16unlinkSystemCall13handleDetPostER11globalStateR5stateR7ptracerR9scheduler
0000000000439550 T _ZN16utimesSystemCall12handleDetPreER11globalStateR5stateR7ptracerR9scheduler
00000000004396b0 T _ZN16utimesSystemCall13handleDetPostER11globalStateR5stateR7ptracerR9scheduler
000000000043a890 T _ZN16waitidSystemCall12handleDetPreER11globalStateR5stateR7ptracerR9scheduler
000000000043aa80 T _ZN16waitidSystemCall13handleDetPostER11globalStateR5stateR7ptracerR9scheduler
000000000043ac60 T _ZN16writevSystemCall12handleDetPreER11globalStateR5stateR7ptracerR9scheduler
000000000043ac80 T _ZN16writevSystemCall13handleDetPostER11globalStateR5stateR7ptracerR9scheduler
000000000043b270 T _ZN17accept4SystemCall12handleDetPreER11globalStateR5stateR7ptracerR9scheduler
000000000043b740 T _ZN17accept4SystemCall13handleDetPostER11globalStateR5stateR7ptracerR9scheduler
00000000004295d0 T _ZN17connectSystemCall12handleDetPreER11globalStateR5stateR7ptracerR9scheduler
00000000004298a0 T _ZN17connectSystemCall13handleDetPostER11globalStateR5stateR7ptracerR9scheduler
000000000042ce90 T _ZN17fstatfsSystemCall12handleDetPreER11globalStateR5stateR7ptracerR9scheduler
000000000042ceb0 T _ZN17fstatfsSystemCall13handleDetPostER11globalStateR5stateR7ptracerR9scheduler
000000000042fce0 T _ZN17mkdiratSystemCall12handleDetPreER11globalStateR5stateR7ptracerR9scheduler
000000000042fea0 T _ZN17mkdiratSystemCall13handleDetPostER11globalStateR5stateR7ptracerR9scheduler
0000000000436520 T _ZN17mknodatSystemCall12handleDetPreER11globalStateR5stateR7ptracerR9scheduler
0000000000436600 T _ZN17mknodatSystemCall13handleDetPostER11globalStateR5stateR7ptracerR9scheduler
0000000000432d10 T _ZN17recvmsgSystemCall12handleDetPreER11globalStateR5stateR7ptracerR9scheduler
0000000000432f80 T _ZN17recvmsgSystemCall13handleDetPostER11globalStateR5stateR7ptracerR9scheduler
0000000000434cb0 T _ZN17sendmsgSystemCall12handleDetPreER11globalStateR5stateR7ptracerR9scheduler
0000000000434de0 T _ZN17sendmsgSystemCall13handleDetPostER11globalStateR5stateR7ptracerR9scheduler
0000000000435c30 T _ZN17symlinkSystemCall12handleDetPreER11globalStateR5stateR7ptracerR9scheduler
0000000000435e00 T _ZN17symlinkSystemCall13handleDetPostER11globalStateR5stateR7ptracerR9scheduler
0000000000435a30 T _ZN17sysinfoSystemCall12handleDetPreER11globalStateR5stateR7ptracerR9scheduler
0000000000435a50 T _ZN17sysinfoSystemCall13handleDetPostER11globalStateR5stateR7ptracerR9scheduler
000000000042bc00 T _ZN18fchownatSystemCall12handleDetPreER11globalStateR5stateR7ptracerR9scheduler
000000000042bd30 T _ZN18fchownatSystemCall13handleDetPostER11globalStateR5stateR7ptracerR9scheduler
000000000042e1d0 T _ZN18getdentsSystemCall12handleDetPreER11globalStateR5stateR7ptracerR9scheduler
000000000042e1f0 T _ZN18getdentsSystemCall13handleDetPostER11globalStateR5stateR7ptracerR9scheduler
0000000000431ba0 T _ZN18pselect6SystemCall12handleDetPreER11globalStateR5stateR7ptracerR9scheduler
0000000000431bc0 T _ZN18pselect6SystemCall13handleDetPostER11globalStateR5stateR7ptracerR9scheduler
0000000000432a10 T _ZN18readlinkSystemCall12handleDetPreER11globalStateR5stateR7ptracerR9scheduler
0000000000432af0 T _ZN18readlinkSystemCall13handleDetPostER11globalStateR5stateR7ptracerR9scheduler
0000000000434f50 T _ZN18recvfromSystemCall12handleDetPreER11globalStateR5stateR7ptracerR9scheduler
0000000000435080 T _ZN18recvfromSystemCall13handleDetPostER11globalStateR5stateR7ptracerR9scheduler
00000000004331e0 T _ZN18renameatSystemCall12handleDetPreER11globalStateR5stateR7ptracerR9scheduler
00000000004333b0 T _ZN18renameatSystemCall13handleDetPostER11globalStateR5stateR7ptracerR9scheduler
0000000000434e00 T _ZN18sendmmsgSystemCall12handleDetPreER11globalStateR5stateR7ptracerR9scheduler
0000000000434f30 T _ZN18sendmmsgSystemCall13handleDetPostER11globalStateR5stateR7ptracerR9scheduler
000000000043ba20 T _ZN18shutdownSystemCall12handleDetPreER11globalStateR5stateR7ptracerR9scheduler
000000000043bb20 T _ZN18shutdownSystemCall13handleDetPostER11globalStateR5stateR7ptracerR9scheduler
0000000000439300 T _ZN18unlinkatSystemCall12handleDetPreER11globalStateR5stateR7ptracerR9scheduler
00000000004393e0 T _ZN18unlinkatSystemCall13handleDetPostER11globalStateR5stateR7ptracerR9scheduler
0000000000429fc0 T _ZN19epoll_ctlSystemCall12handleDetPreER11globalStateR5stateR7ptracerR9scheduler
000000000042a880 T _ZN19epoll_ctlSystemCall13handleDetPostER11globalStateR5stateR7ptracerR9scheduler
000000000042c960 T _ZN19faccessatSystemCall12handleDetPreER11globalStateR5stateR7ptracerR9scheduler
000000000042ca40 T _ZN19faccessatSystemCall13handleDetPostER11globalStateR5stateR7ptracerR9scheduler
000000000042cae0 T _ZN19fgetxattrSystemCall12handleDetPreER11globalStateR5stateR7ptracerR9scheduler
000000000042cb00 T _ZN19fgetxattrSystemCall13handleDetPostER11globalStateR5stateR7ptracerR9scheduler
00000000004399f0 T _ZN19futimesatSystemCall12handleDetPreER11globalStateR5stateR7ptracerR9scheduler
0000000000439a50 T _ZN19futimesatSystemCall13handleDetPostER11globalStateR5stateR7ptracerR9scheduler
00000000004381a0 T _ZN19getitimerSystemCall12handleDetPreER11globalStateR5stateR7ptracerR9scheduler
0000000000438350 T _ZN19getitimerSystemCall13handleDetPostER11globalStateR5stateR7ptracerR9scheduler
000000000042e2d0 T _ZN19getrandomSystemCall12handleDetPreER11globalStateR5stateR7ptracerR9scheduler
000000000042e2f0 T _ZN19getrandomSystemCall13handleDetPostER11globalStateR5stateR7ptracerR9scheduler
000000000042e490 T _ZN19getrlimitSystemCall12handleDetPreER11globalStateR5stateR7ptracerR9scheduler
000000000042e4b0 T _ZN19getrlimitSystemCall13handleDetPostER11globalStateR5stateR7ptracerR9scheduler
000000000042e4f0 T _ZN19getrusageSystemCall12handleDetPreER11globalStateR5stateR7ptracerR9scheduler
000000000042e510 T _ZN19getrusageSystemCall13handleDetPostER11globalStateR5stateR7ptracerR9scheduler
000000000042f610 T _ZN19lgetxattrSystemCall12handleDetPreER11globalStateR5stateR7ptracerR9scheduler
000000000042f630 T _ZN19lgetxattrSystemCall13handleDetPostER11globalStateR5stateR7ptracerR9scheduler
000000000042f920 T _ZN19nanosleepSystemCall12handleDetPreER11globalStateR5stateR7ptracerR9scheduler
000000000042f9f0 T _ZN19nanosleepSystemCall13handleDetPostER11globalStateR5stateR7ptracerR9scheduler
0000000000431e00 T _ZN19prlimit64SystemCall12handleDetPreER11globalStateR5stateR7ptracerR9scheduler
0000000000431ef0 T _ZN19prlimit64SystemCall13handleDetPostER11globalStateR5stateR7ptracerR9scheduler
00000000004333d0 T _ZN19renameat2SystemCall12handleDetPreER11globalStateR5stateR7ptracerR9scheduler
00000000004335a0 T _ZN19renameat2SystemCall13handleDetPostER11globalStateR5stateR7ptracerR9scheduler
0000000000438380 T _ZN19setitimerSystemCall12handleDetPreER11globalStateR5stateR7ptracerR9scheduler
00000000004385b0 T _ZN19setitimerSystemCall13handleDetPostER11globalStateR5stateR7ptracerR9scheduler
0000000000435f70 T _ZN19symlinkatSystemCall12handleDetPreER11globalStateR5stateR7ptracerR9scheduler
0000000000436140 T _ZN19symlinkatSystemCall13handleDetPostER11globalStateR5stateR7ptracerR9scheduler
00000000004396f0 T _ZN19utimensatSystemCall12handleDetPreER11globalStateR5stateR7ptracerR9scheduler
00000000004399b0 T _ZN19utimensatSystemCall13handleDetPostER11globalStateR5stateR7ptracerR9scheduler
0000000000428760 T _ZN20arch_prctlSystemCall12handleDetPreER11globalStateR5stateR7ptracerR9scheduler
00000000004288a0 T _ZN20arch_prctlSystemCall13handleDetPostER11globalStateR5stateR7ptracerR9scheduler
000000000042a8a0 T _ZN20epoll_waitSystemCall12handleDetPreER11globalStateR5stateR7ptracerR9scheduler
000000000042aa00 T _ZN20epoll_waitSystemCall13handleDetPostER11globalStateR5stateR7ptracerR9scheduler
000000000042ba70 T _ZN20exit_groupSystemCall12handleDetPreER11globalStateR5stateR7ptracerR9scheduler
000000000042bb40 T _ZN20exit_groupSystemCall13handleDetPostER11globalStateR5stateR7ptracerR9scheduler
000000000042cbe0 T _ZN20flistxattrSystemCall12handleDetPreER11globalStateR5stateR7ptracerR9scheduler
000000000042cc00 T _ZN20flistxattrSystemCall13handleDetPostER11globalStateR5stateR7ptracerR9scheduler
000000000042e230 T _ZN20getdents64SystemCall12handleDetPreER11globalStateR5stateR7ptracerR9scheduler
000000000042e250 T _ZN20getdents64SystemCall13handleDetPostER11globalStateR5stateR7ptracerR9scheduler
000000000042f5d0 T _ZN20llistxattrSystemCall12handleDetPreER11globalStateR5stateR7ptracerR9scheduler
000000000042f5f0 T _ZN20llistxattrSystemCall13handleDetPostER11globalStateR5stateR7ptracerR9scheduler
0000000000430040 T _ZN20newfstatatSystemCall12handleDetPreER11globalStateR5stateR7ptracerR9scheduler
0000000000430060 T _ZN20newfstatatSystemCall13handleDetPostER11globalStateR5stateR7ptracerR9scheduler
0000000000432b90 T _ZN20readlinkatSystemCall12handleDetPreER11globalStateR5stateR7ptracerR9scheduler
0000000000432c70 T _ZN20readlinkatSystemCall13handleDetPostER11globalStateR5stateR7ptracerR9scheduler
000000000042aec0 T _ZN21epoll_pwaitSystemCall12handleDetPreER11globalStateR5stateR7ptracerR9scheduler
000000000042af20 T _ZN21epoll_pwaitSystemCall13handleDetPostER11globalStateR5stateR7ptracerR9scheduler
000000000042e290 T _ZN21getpeernameSystemCall12handleDetPreER11globalStateR5stateR7ptracerR9scheduler
000000000042e2b0 T _ZN21getpeernameSystemCall13handleDetPostER11globalStateR5stateR7ptracerR9scheduler
000000000042e810 T _ZN22gettimeofdaySystemCall12handleDetPreER11globalStateR5stateR7ptracerR9scheduler
000000000042e830 T _ZN22gettimeofdaySystemCall13handleDetPostER11globalStateR5stateR7ptracerR9scheduler
00000000004337a0 T _ZN22rt_sigactionSystemCall12handleDetPreER11globalStateR5stateR7ptracerR9scheduler
0000000000433fd0 T _ZN22rt_sigactionSystemCall13handleDetPostER11globalStateR5stateR7ptracerR9scheduler
0000000000436fe0 T _ZN22timer_createSystemCall12handleDetPreER11globalStateR5stateR7ptracerR9scheduler
0000000000437680 T _ZN22timer_createSystemCall13handleDetPostER11globalStateR5stateR7ptracerR9scheduler
0000000000437720 T _ZN22timer_deleteSystemCall12handleDetPreER11globalStateR5stateR7ptracerR9scheduler
0000000000437930 T _ZN22timer_deleteSystemCall13handleDetPostER11globalStateR5stateR7ptracerR9scheduler
00000000004290b0 T _ZN23clock_gettimeSystemCall12handleDetPreER11globalStateR5stateR7ptracerR9scheduler
00000000004290d0 T _ZN23clock_gettimeSystemCall13handleDetPostER11globalStateR5stateR7ptracerR9scheduler
0000000000434c30 T _ZN23rt_sigpendingSystemCall12handleDetPreER11globalStateR5stateR7ptracerR9scheduler
0000000000434c50 T _ZN23rt_sigpendingSystemCall13handleDetPostER11globalStateR5stateR7ptracerR9scheduler
00000000004348a0 T _ZN23rt_sigsuspendSystemCall12handleDetPreER11globalStateR5stateR7ptracerR9scheduler
0000000000434b90 T _ZN23rt_sigsuspendSystemCall13handleDetPostER11globalStateR5stateR7ptracerR9scheduler
0000000000437ba0 T _ZN23timer_gettimeSystemCall12handleDetPreER11globalStateR5stateR7ptracerR9scheduler
0000000000437eb0 T _ZN23timer_gettimeSystemCall13handleDetPostER11globalStateR5stateR7ptracerR9scheduler
0000000000437ee0 T _ZN23timer_settimeSystemCall12handleDetPreER11globalStateR5stateR7ptracerR9scheduler
0000000000438180 T _ZN23timer_settimeSystemCall13handleDetPostER11globalStateR5stateR7ptracerR9scheduler
00000000004336c0 T _ZN24rt_sigprocmaskSystemCall12handleDetPreER11globalStateR5stateR7ptracerR9scheduler
00000000004336e0 T _ZN24rt_sigprocmaskSystemCall13handleDetPostER11globalStateR5stateR7ptracerR9scheduler
00000000004385d0 T _ZN24timerfd_createSystemCall12handleDetPreER11globalStateR5stateR7ptracerR9scheduler
00000000004386c0 T _ZN24timerfd_createSystemCall13handleDetPostER11globalStateR5stateR7ptracerR9scheduler
00000000004344d0 T _ZN25rt_sigtimedwaitSystemCall12handleDetPreER11globalStateR5stateR7ptracerR9scheduler
0000000000434640 T _ZN25rt_sigtimedwaitSystemCall13handleDetPostER11globalStateR5stateR7ptracerR9scheduler
0000000000435710 T _ZN25set_robust_listSystemCall12handleDetPreER11globalStateR5stateR7ptracerR9scheduler
0000000000435730 T _ZN25set_robust_listSystemCall13handleDetPostER11globalStateR5stateR7ptracerR9scheduler
0000000000438cc0 T _ZN25timerfd_gettimeSystemCall12handleDetPreER11globalStateR5stateR7ptracerR9scheduler
0000000000438ce0 T _ZN25timerfd_gettimeSystemCall13handleDetPostER11globalStateR5stateR7ptracerR9scheduler
0000000000438880 T _ZN25timerfd_settimeSystemCall12handleDetPreER11globalStateR5stateR7ptracerR9scheduler
0000000000438a70 T _ZN25timerfd_settimeSystemCall13handleDetPostER11globalStateR5stateR7ptracerR9scheduler
0000000000437960 T _ZN26timer_getoverrunSystemCall12handleDetPreER11globalStateR5stateR7ptracerR9scheduler
0000000000437b70 T _ZN26timer_getoverrunSystemCall13handleDetPostER11globalStateR5stateR7ptracerR9scheduler
00000000004e6700 T _ZN3rnr11callPreHookEPvPFlS0_P12SyscallStateiiimmmmmmEiR11globalStateR5stateR7ptracerR9scheduler
00000000004e6820 T _ZN3rnr12callPostHookEPvPFlS0_P12SyscallStateiiimmmmmmmEiR11globalStateR5stateR7ptracerR9scheduler
00000000004d4df0 T _ZN5state11getFdStatusEi
00000000004d4db0 T _ZN5state11setFdStatusEi14descriptorType
00000000004d4e20 T _ZN5state13countFdStatusEi
00000000004d4860 T _ZN5stateC1EiiNSt6chrono10time_pointI13logical_clockNS0_8durationIlSt5ratioILl1ELl1000000EEEEEES6_
00000000004d4860 T _ZN5stateC2EiiNSt6chrono10time_pointI13logical_clockNS0_8durationIlSt5ratioILl1ELl1000000EEEEEES6_
00000000004f1e80 T _ZN6logger10setPaddingEv
00000000004f1a70 T _ZN6logger10writeToLogE10ImportanceNSt7__cxx1112basic_stringIcSt11char_traitsIcESaIcEEEz
00000000004f1ea0 T _ZN6logger12unsetPaddingEv
00000000004f1ec0 T _ZN6logger13getDebugLevelEv
00000000004f1ed0 T _ZN6logger15makeTextColoredE5ColorNSt7__cxx1112basic_stringIcSt11char_traitsIcESaIcEEE
00000000004f19e0 T _ZN6logger18writeToLogNoFormatE10ImportanceNSt7__cxx1112basic_stringIcSt11char_traitsIcESaIcEEE
00000000004f1800 T _ZN6loggerC1ENSt7__cxx1112basic_stringIcSt11char_traitsIcESaIcEEEib
00000000004f1800 T _ZN6loggerC2ENSt7__cxx1112basic_stringIcSt11char_traitsIcESaIcEEEib
00000000004df890 T _ZN7TempDirC1ERKNSt7__cxx1112basic_stringIcSt11char_traitsIcESaIcEEEb
00000000004df7d0 T _ZN7TempDirC1Ev
00000000004df890 T _ZN7TempDirC2ERKNSt7__cxx1112basic_stringIcSt11char_traitsIcESaIcEEEb
00000000004df7d0 T _ZN7TempDirC2Ev
00000000004dfd60 T _ZN7TempDirD0Ev
00000000004dfcb0 T _ZN7TempDirD1Ev
00000000004dfcb0 T _ZN7TempDirD2Ev
0000000000460660 t _ZN7cxxopts12_GLOBAL__N_113format_optionB5cxx11ERKNS_17HelpOptionDetailsE
0000000000460bb0 t _ZN7cxxopts12_GLOBAL__N_118format_descriptionB5cxx11ERKNS_17HelpOptionDetailsEmm
00000000004d4230 T _ZN7ptracer10setOptionsEi
00000000004d3fc0 T _ZN7ptracer11displayRegsEv
00000000004d41c0 T _ZN7ptracer11updateStateEi
00000000004d3f80 T _ZN7ptracer14getReturnValueEv
00000000004d3f40 T _ZN7ptracer15getEventMessageEi
00000000004d43c0 T _ZN7ptracer16changeSystemCallEm
00000000004d4260 T _ZN7ptracer17readTraceeCStringB5cxx11E9traceePtrIcEi
00000000004d4170 T _ZN7ptracer17setReturnRegisterEm
00000000004d3fa0 T _ZN7ptracer19getSystemCallNumberEv
00000000004d3900 T _ZN7ptracer4arg1Ev
00000000004d3920 T _ZN7ptracer4arg2Ev
00000000004d3940 T _ZN7ptracer4arg3Ev
00000000004d3960 T _ZN7ptracer4arg4Ev
00000000004d3980 T _ZN7ptracer4arg5Ev
00000000004d39a0 T _ZN7ptracer4arg6Ev
00000000004d4210 T _ZN7ptracer6getPidEv
00000000004d3f10 T _ZN7ptracer6getRaxEv
00000000004d3eb0 T _ZN7ptracer6getRipEv
00000000004d3ee0 T _ZN7ptracer6getRspEv
00000000004d39c0 T _ZN7ptracer7getRegsEv
00000000004d3a00 T _ZN7ptracer7setRegsE16user_regs_struct
00000000004d4600 T _ZN7ptracer7writeIpEm
00000000004d3a70 T _ZN7ptracer8doPtraceE16__ptrace_requestiPvS1_
00000000004d4650 T _ZN7ptracer8writeRaxEm
00000000004d46a0 T _ZN7ptracer8writeRbxEm
00000000004d4740 T _ZN7ptracer8writeRcxEm
00000000004d46f0 T _ZN7ptracer8writeRdxEm
00000000004d4420 T _ZN7ptracer9writeArg1Em
00000000004d4470 T _ZN7ptracer9writeArg2Em
00000000004d44c0 T _ZN7ptracer9writeArg3Em
00000000004d4510 T _ZN7ptracer9writeArg4Em
00000000004d4560 T _ZN7ptracer9writeArg5Em
00000000004d45b0 T _ZN7ptracer9writeArg6Em
00000000004d3740 T _ZN7ptracerC1Ei
00000000004d3740 T _ZN7ptracerC2Ei
00000000004e64a0 T _ZN7seccomp11noInterceptEt
00000000004e65d0 T _ZN7seccomp18loadFilterToKernelEv
00000000004e63c0 T _ZN7seccomp9interceptEt
00000000004e6570 T _ZN7seccomp9interceptEtb
00000000004e5870 T _ZN7seccomp9loadRulesEbb
00000000004e5780 T _ZN7seccompC1Eib
00000000004e5780 T _ZN7seccompC2Eib
00000000004e66d0 T _ZN7seccompD1Ev
00000000004e66d0 T _ZN7seccompD2Ev
00000000004e06f0 T _ZN8TempFileC1ER7TempDir
00000000004e0510 T _ZN8TempFileC1Ev
00000000004e06f0 T _ZN8TempFileC2ER7TempDir
00000000004e0510 T _ZN8TempFileC2Ev
00000000004e0a40 T _ZN8TempPathC1ER7TempDir
00000000004e0bb0 T _ZN8TempPathC1ERKNSt7__cxx1112basic_stringIcSt11char_traitsIcESaIcEEE
00000000004e0890 T _ZN8TempPathC1Ev
00000000004e0a40 T _ZN8TempPathC2ER7TempDir
00000000004e0bb0 T _ZN8TempPathC2ERKNSt7__cxx1112basic_stringIcSt11char_traitsIcESaIcEEE
00000000004e0890 T _ZN8TempPathC2Ev
0000000000460610 t _ZN9__gnu_cxxL12__atomic_addEPVii
00000000004d5910 t _ZN9__gnu_cxxL12__atomic_addEPVii
0000000000460570 t _ZN9__gnu_cxxL18__exchange_and_addEPVii
00000000004c9070 t _ZN9__gnu_cxxL18__exchange_and_addEPVii
00000000004d5870 t _ZN9__gnu_cxxL18__exchange_and_addEPVii
00000000004e4ac0 t _ZN9__gnu_cxxL18__exchange_and_addEPVii
0000000000460640 t _ZN9__gnu_cxxL19__atomic_add_singleEPii
00000000004d5940 t _ZN9__gnu_cxxL19__atomic_add_singleEPii
00000000004605d0 t _ZN9__gnu_cxxL21__atomic_add_dispatchEPii
00000000004d58d0 t _ZN9__gnu_cxxL21__atomic_add_dispatchEPii
00000000004605a0 t _ZN9__gnu_cxxL25__exchange_and_add_singleEPii
00000000004c90a0 t _ZN9__gnu_cxxL25__exchange_and_add_singleEPii
00000000004d58a0 t _ZN9__gnu_cxxL25__exchange_and_add_singleEPii
00000000004e4af0 t _ZN9__gnu_cxxL25__exchange_and_add_singleEPii
0000000000460500 t _ZN9__gnu_cxxL27__exchange_and_add_dispatchEPii
00000000004c9000 t _ZN9__gnu_cxxL27__exchange_and_add_dispatchEPii
00000000004d5800 t _ZN9__gnu_cxxL27__exchange_and_add_dispatchEPii
00000000004e4a50 t _ZN9__gnu_cxxL27__exchange_and_add_dispatchEPii
00000000004c3010 T _ZN9execution10runProgramEv
00000000004c0850 T _ZN9execution11callPreHookEiR11globalStateR5stateR7ptracerR9scheduler
00000000004c8080 T _ZN9execution11disableVdsoEi
00000000004c2310 T _ZN9execution12callPostHookEiR11globalStateR5stateR7ptracerR9scheduler
00000000004c17d0 T _ZN9execution12getNextEventEib
00000000004c73f0 T _ZN9execution12handleSignalEii
00000000004c5700 T _ZN9execution13handleSeccompEi
00000000004c8ed0 T _ZN9execution13loopOnWaitpidEi
00000000004c5e30 T _ZN9execution14getPtraceEventEi
00000000004c6fd0 T _ZN9execution15handleExecEventEi
00000000004c6420 T _ZN9execution15handleForkEventEib
00000000004c59b0 T _ZN9execution18handleExitedThreadEi
00000000004bfac0 T _ZN9execution18handleNonEventExitEi
00000000004c0250 T _ZN9execution19handlePreSystemCallER5statei
00000000004c1d40 T _ZN9execution20handlePostSystemCallER5state
00000000004bf370 T _ZN9executionC1EiibNSt7__cxx1112basic_stringIcSt11char_traitsIcESaIcEEEbP10VDSOSymbolijbNSt6chrono10time_pointI13logical_clockNS8_8durationIlSt5ratioILl1ELl1000000EEEEEESE_PFlPvP12SyscallStateiiimmmmmmEPFlSG_SI_iiimmmmmmmESG_
00000000004bf370 T _ZN9executionC2EiibNSt7__cxx1112basic_stringIcSt11char_traitsIcESaIcEEEbP10VDSOSymbolijbNSt6chrono10time_pointI13logical_clockNS8_8durationIlSt5ratioILl1ELl1000000EEEEEESE_PFlPvP12SyscallStateiiimmmmmmEPFlSG_SI_iiimmmmmmmESG_
00000000004ed720 T _ZN9scheduler10isFinishedEi
00000000004ee8d0 T _ZN9scheduler14printProcessesEv
00000000004ee2e0 T _ZN9scheduler18addAndScheduleNextEi
00000000004ede60 T _ZN9scheduler19scheduleNextProcessEv
00000000004ee770 T _ZN9scheduler21removeAndScheduleNextEi
00000000004ee020 T _ZN9scheduler22preemptAndScheduleNextEv
00000000004ed490 T _ZN9scheduler23removeAndScheduleParentEii
00000000004edb90 T _ZN9scheduler27markFinishedAndScheduleNextEi
00000000004ed790 T _ZN9scheduler6removeEi
00000000004ed470 T _ZN9scheduler7getNextEv
00000000004ed3a0 T _ZN9schedulerC1EiR6logger
00000000004ed3a0 T _ZN9schedulerC2EiR6logger
0000000000431de0 t _ZN9traceePtrIZN14pollSystemCall13handleDetPostER11globalStateR5stateR7ptracerR9schedulerE6pollfdEC2EPS9_
00000000004d5450 T _ZNK5state6clonedEi
00000000004d4e60 T _ZNK5state6forkedEi
0000000000432950 t _ZZN14readSystemCall13handleDetPostER11globalStateR5stateR7ptracerR9schedulerENK3$_0clEv
000000000043a3a0 t _ZZN15writeSystemCall13handleDetPostER11globalStateR5stateR7ptracerR9schedulerENK3$_1clEv
00000000004c7ef0 t _ZZN9execution10runProgramEvENK3$_0clENSt7__cxx1112basic_stringIcSt11char_traitsIcESaIcEEEj
000000000040ed50 t __cxx_global_array_dtor
00000000004172b0 t __cxx_global_array_dtor
000000000041f610 t __cxx_global_array_dtor
0000000000427970 t __cxx_global_array_dtor
0000000000406be0 t __cxx_global_var_init
000000000040edc0 t __cxx_global_var_init
000000000040f140 t __cxx_global_var_init
0000000000417320 t __cxx_global_var_init
0000000000417380 t __cxx_global_var_init
00000000004173e0 t __cxx_global_var_init
0000000000417440 t __cxx_global_var_init
00000000004174a0 t __cxx_global_var_init
000000000041f680 t __cxx_global_var_init
000000000041f6e0 t __cxx_global_var_init
000000000041f740 t __cxx_global_var_init
000000000041f7a0 t __cxx_global_var_init
000000000041f800 t __cxx_global_var_init
00000000004279e0 t __cxx_global_var_init
0000000000427a40 t __cxx_global_var_init
0000000000427aa0 t __cxx_global_var_init
0000000000406c30 t __cxx_global_var_init.1
000000000040ee10 t __cxx_global_var_init.1
000000000040f190 t __cxx_global_var_init.1
00000000004174f0 t __cxx_global_var_init.1
000000000041f850 t __cxx_global_var_init.1
0000000000427af0 t __cxx_global_var_init.1
000000000040f050 t __cxx_global_var_init.10
000000000040f0b0 t __cxx_global_var_init.12
0000000000428000 t __cxx_global_var_init.14
000000000040eea0 t __cxx_global_var_init.2
000000000040ef30 t __cxx_global_var_init.4
000000000040ef90 t __cxx_global_var_init.6
000000000040eff0 t __cxx_global_var_init.8
0000000000428620 t __do_global_dtors_aux
000000000075cb38 t __do_global_dtors_aux_fini_array_entry
000000000075cab0 t __frame_dummy_init_array_entry
000000000075cb38 t __init_array_end
000000000075cab0 t __init_array_start
00000000004f52a0 T __libc_csu_fini
00000000004f5230 T __libc_csu_init
00000000004f52c0 T __lstat
00000000004f52d0 T __mknod
00000000004f52b0 T __stat
00000000004285a0 T _dl_relocate_static_pie
00000000004f52f0 T _fini
0000000000405cf0 T _init
0000000000428570 T _start
00000000004285b0 t deregister_tm_clones
00000000004e1fe0 T dettrace
0000000000428650 t frame_dummy
0000000000456e40 T main
00000000004285e0 t register_tm_clones
